; Function Attrs: mustprogress nounwind uwtable
define hidden void @_ZNK5clang7targets18MinGWARMTargetInfo16getTargetDefinesERKNS_11LangOptionsERNS_12MacroBuilderE(ptr noundef nonnull align 8 dereferenceable(680) %0, ptr noundef nonnull align 8 dereferenceable(841) %1, ptr noundef nonnull align 8 dereferenceable(8) %2) unnamed_addr #0 align 2 {
  %4 = alloca %"class.llvm::Twine", align 8
  %5 = alloca %"class.llvm::Twine", align 8
  %6 = alloca %"class.llvm::Twine", align 8
  %7 = alloca %"class.llvm::Twine", align 8
  call void @llvm.lifetime.start.p0(i64 40, ptr nonnull %4)
  call void @llvm.lifetime.start.p0(i64 40, ptr nonnull %5)
  %8 = getelementptr inbounds nuw i8, ptr %4, i64 32
  %9 = getelementptr inbounds nuw i8, ptr %4, i64 33
  store i8 1, ptr %9, align 1
  store ptr @.str.315, ptr %4, align 8
  store i8 3, ptr %8, align 8
  %10 = getelementptr inbounds nuw i8, ptr %5, i64 32
  %11 = getelementptr inbounds nuw i8, ptr %5, i64 33
  store i8 1, ptr %11, align 1
  store ptr @.str.116, ptr %5, align 8
  store i8 3, ptr %10, align 8
  call void @_ZN5clang12MacroBuilder11defineMacroERKN4llvm5TwineES4_(ptr noundef nonnull align 8 dereferenceable(8) %2, ptr noundef nonnull align 8 dereferenceable(34) %4, ptr noundef nonnull align 8 dereferenceable(34) %5)
  call void @_ZNK5clang7targets13ARMTargetInfo16getTargetDefinesERKNS_11LangOptionsERNS_12MacroBuilderE(ptr noundef nonnull align 8 dereferenceable(624) %0, ptr noundef nonnull readonly align 8 dereferenceable(841) %1, ptr noundef nonnull align 8 dereferenceable(8) %2)
  call void @llvm.lifetime.end.p0(i64 40, ptr nonnull %4)
  call void @llvm.lifetime.end.p0(i64 40, ptr nonnull %5)
  %12 = getelementptr inbounds nuw i8, ptr %0, i64 216
  %13 = load ptr, ptr %0, align 8
  %14 = getelementptr inbounds i8, ptr %13, i64 968
  %15 = load ptr, ptr %14, align 8
  call void %15(ptr noundef nonnull align 8 dereferenceable(624) %0, ptr noundef nonnull align 8 dereferenceable(841) %1, ptr noundef nonnull align 8 dereferenceable(56) %12, ptr noundef nonnull align 8 dereferenceable(8) %2) #24
  %16 = getelementptr inbounds nuw i8, ptr %6, i64 32
  %17 = getelementptr inbounds nuw i8, ptr %6, i64 33
  store i8 1, ptr %17, align 1
  store ptr @.str.324, ptr %6, align 8
  store i8 3, ptr %16, align 8
  %18 = getelementptr inbounds nuw i8, ptr %7, i64 32
  %19 = getelementptr inbounds nuw i8, ptr %7, i64 33
  store i8 1, ptr %19, align 1
  store ptr @.str.116, ptr %7, align 8
  store i8 3, ptr %18, align 8
  call void @_ZN5clang12MacroBuilder11defineMacroERKN4llvm5TwineES4_(ptr noundef nonnull align 8 dereferenceable(8) %2, ptr noundef nonnull align 8 dereferenceable(34) %6, ptr noundef nonnull align 8 dereferenceable(34) %7)
  ret void
}